target datalayout = "e-m:e-p270:32:32-p271:32:32-p272:64:64-i64:64-i128:128-f80:128-n8:16:32:64-S128"
target triple = "x86_64-pc-linux-gnu"

%struct.archive_entry = type { ptr, ptr, i32, %struct.aest, i32, %struct.archive_mstring, i64, i64, %struct.archive_mstring, %struct.archive_mstring, %struct.archive_mstring, %struct.archive_mstring, %struct.archive_mstring, i8, ptr, i64, %struct.ae_digest, %struct.archive_acl, ptr, ptr, ptr, ptr, ptr, [12 x i8], i32 }
%struct.aest = type { i64, i32, i64, i32, i64, i32, i64, i32, i64, i64, i32, i64, i64, i32, i64, i64, i64, i32, i64, i64, i64 }
%struct.archive_mstring = type { %struct.archive_string, %struct.archive_string, %struct.archive_wstring, %struct.archive_string, i32 }
%struct.archive_wstring = type { ptr, i64, i64 }
%struct.archive_string = type { ptr, i64, i64 }
%struct.ae_digest = type { [16 x i8], [20 x i8], [20 x i8], [32 x i8], [48 x i8], [64 x i8] }
%struct.archive_acl = type { i32, ptr, ptr, i32, ptr, ptr, i32 }

; Function Attrs: nounwind uwtable
define internal i32 @archive_entry_acl_text_compat(ptr noundef %0) #0 {
  %2 = alloca i32, align 4
  %3 = alloca ptr, align 8
  store ptr %0, ptr %3, align 8, !tbaa !79
  %4 = load ptr, ptr %3, align 8, !tbaa !79
  %5 = load i32, ptr %4, align 4, !tbaa !32
  %6 = and i32 %5, 768
  %7 = icmp eq i32 %6, 0
  br i1 %7, label %8, label %9

8:                                                ; preds = %1
  store i32 1, ptr %2, align 4
  br label %31

9:                                                ; preds = %1
  %10 = load ptr, ptr %3, align 8, !tbaa !79
  %11 = load i32, ptr %10, align 4, !tbaa !32
  %12 = and i32 %11, 1024
  %13 = icmp ne i32 %12, 0
  br i1 %13, label %14, label %18

14:                                               ; preds = %9
  %15 = load ptr, ptr %3, align 8, !tbaa !79
  %16 = load i32, ptr %15, align 4, !tbaa !32
  %17 = or i32 %16, 1
  store i32 %17, ptr %15, align 4, !tbaa !32
  br label %18

18:                                               ; preds = %14, %9
  %19 = load ptr, ptr %3, align 8, !tbaa !79
  %20 = load i32, ptr %19, align 4, !tbaa !32
  %21 = and i32 %20, 2048
  %22 = icmp ne i32 %21, 0
  br i1 %22, label %23, label %27

23:                                               ; preds = %18
  %24 = load ptr, ptr %3, align 8, !tbaa !79
  %25 = load i32, ptr %24, align 4, !tbaa !32
  %26 = or i32 %25, 2
  store i32 %26, ptr %24, align 4, !tbaa !32
  br label %27

27:                                               ; preds = %23, %18
  %28 = load ptr, ptr %3, align 8, !tbaa !79
  %29 = load i32, ptr %28, align 4, !tbaa !32
  %30 = or i32 %29, 8
  store i32 %30, ptr %28, align 4, !tbaa !32
  store i32 0, ptr %2, align 4
  br label %31

31:                                               ; preds = %27, %8
  %32 = load i32, ptr %2, align 4
  ret i32 %32
}

; Function Attrs: nounwind uwtable
define dso_local ptr @archive_entry_acl_text(ptr noundef %0, i32 noundef %1) #0 {
  %3 = alloca ptr, align 8
  %4 = alloca i32, align 4
  store ptr %0, ptr %3, align 8, !tbaa !4
  store i32 %1, ptr %4, align 4, !tbaa !32
  %5 = load ptr, ptr %3, align 8, !tbaa !4
  %6 = getelementptr inbounds nuw %struct.archive_entry, ptr %5, i32 0, i32 17
  %7 = getelementptr inbounds nuw %struct.archive_acl, ptr %6, i32 0, i32 5
  %8 = load ptr, ptr %7, align 8, !tbaa !107
  call void @free(ptr noundef %8) #13
  %9 = load ptr, ptr %3, align 8, !tbaa !4
  %10 = getelementptr inbounds nuw %struct.archive_entry, ptr %9, i32 0, i32 17
  %11 = getelementptr inbounds nuw %struct.archive_acl, ptr %10, i32 0, i32 5
  store ptr null, ptr %11, align 8, !tbaa !107
  %12 = call i32 @archive_entry_acl_text_compat(ptr noundef %4)
  %13 = icmp eq i32 %12, 0
  br i1 %13, label %14, label %22

14:                                               ; preds = %2
  %15 = load ptr, ptr %3, align 8, !tbaa !4
  %16 = getelementptr inbounds nuw %struct.archive_entry, ptr %15, i32 0, i32 17
  %17 = load i32, ptr %4, align 4, !tbaa !32
  %18 = call ptr @archive_acl_to_text_l(ptr noundef %16, ptr noundef null, i32 noundef %17, ptr noundef null)
  %19 = load ptr, ptr %3, align 8, !tbaa !4
  %20 = getelementptr inbounds nuw %struct.archive_entry, ptr %19, i32 0, i32 17
  %21 = getelementptr inbounds nuw %struct.archive_acl, ptr %20, i32 0, i32 5
  store ptr %18, ptr %21, align 8, !tbaa !107
  br label %22

22:                                               ; preds = %14, %2
  %23 = load ptr, ptr %3, align 8, !tbaa !4
  %24 = getelementptr inbounds nuw %struct.archive_entry, ptr %23, i32 0, i32 17
  %25 = getelementptr inbounds nuw %struct.archive_acl, ptr %24, i32 0, i32 5
  %26 = load ptr, ptr %25, align 8, !tbaa !107
  ret ptr %26
}